target datalayout = "e-m:e-p270:32:32-p271:32:32-p272:64:64-i64:64-i128:128-f80:128-n8:16:32:64-S128"
target triple = "x86_64-pc-linux-gnu"

%struct._zend_compiler_globals = type { %struct._zend_stack, ptr, ptr, i32, ptr, ptr, ptr, ptr, i8, i8, i8, i8, i8, %struct._zend_llist, ptr, i8, i8, i8, i8, ptr, i32, i32, %struct._zend_oparray_context, %struct._zend_file_context, ptr, %struct._zend_array, ptr, i64, i8, i8, i8, ptr, ptr, %struct._zend_stack, ptr, i32, ptr, ptr, i64, i64, ptr, ptr, ptr, ptr, i32, %struct._zend_stack }
%struct._zend_llist = type { ptr, ptr, i64, i64, ptr, i8, ptr }
%struct._zend_oparray_context = type { i32, i32, i32, i32, i32, i32, i32, ptr, ptr, i8 }
%struct._zend_file_context = type { %struct._zend_declarables, ptr, i8, i8, ptr, ptr, ptr, %struct._zend_array }
%struct._zend_declarables = type { i64 }
%struct._zend_array = type { %struct._zend_refcounted_h, %union.anon.0, i32, %union.anon.1, i32, i32, i32, i32, i64, ptr }
%struct._zend_refcounted_h = type { i32, %union.anon }
%union.anon = type { i32 }
%union.anon.0 = type { i32 }
%union.anon.1 = type { ptr }
%struct._zend_stack = type { i32, i32, i32, ptr }
%struct._zval_struct = type { %union._zend_value, %union.anon.3, %union.anon.6 }
%union._zend_value = type { i64 }
%union.anon.3 = type { i32 }
%union.anon.6 = type { i32 }
%struct._zend_op = type { ptr, %union._znode_op, %union._znode_op, %union._znode_op, i32, i32, i8, i8, i8, i8 }
%union._znode_op = type { i32 }
%struct._zend_ast = type { i16, i16, i32, [1 x ptr] }
%struct._znode = type { i8, i8, %union.anon.14 }
%union.anon.14 = type { %struct._zval_struct }

@compiler_globals = global %struct._zend_compiler_globals zeroinitializer, align 8

; Function Attrs: nounwind uwtable
define internal i32 @zend_short_circuiting_checkpoint() #0 {
  %1 = call i32 @zend_stack_count(ptr noundef getelementptr inbounds (%struct._zend_compiler_globals, ptr @compiler_globals, i32 0, i32 45))
  ret i32 %1
}

; Function Attrs: nounwind uwtable
define internal i32 @zend_delayed_compile_begin() #0 {
  %1 = call i32 @zend_stack_count(ptr noundef getelementptr inbounds (%struct._zend_compiler_globals, ptr @compiler_globals, i32 0, i32 33))
  ret i32 %1
}

; Function Attrs: nounwind uwtable
define internal ptr @zend_compile_var(ptr noundef %0, ptr noundef %1, i32 noundef %2, i1 noundef zeroext %3) #0 {
  %5 = alloca ptr, align 8
  %6 = alloca ptr, align 8
  %7 = alloca i32, align 4
  %8 = alloca i8, align 1
  %9 = alloca i32, align 4
  %10 = alloca ptr, align 8
  store ptr %0, ptr %5, align 8
  store ptr %1, ptr %6, align 8
  store i32 %2, ptr %7, align 4
  %11 = zext i1 %3 to i8
  store i8 %11, ptr %8, align 1
  %12 = call i32 @zend_short_circuiting_checkpoint()
  store i32 %12, ptr %9, align 4
  %13 = load ptr, ptr %5, align 8
  %14 = load ptr, ptr %6, align 8
  %15 = load i32, ptr %7, align 4
  %16 = load i8, ptr %8, align 1
  %17 = trunc i8 %16 to i1
  %18 = call ptr @zend_compile_var_inner(ptr noundef %13, ptr noundef %14, i32 noundef %15, i1 noundef zeroext %17)
  store ptr %18, ptr %10, align 8
  %19 = load i32, ptr %9, align 4
  %20 = load ptr, ptr %5, align 8
  %21 = load ptr, ptr %6, align 8
  call void @zend_short_circuiting_commit(i32 noundef %19, ptr noundef %20, ptr noundef %21)
  %22 = load ptr, ptr %10, align 8
  ret ptr %22
}

; Function Attrs: nounwind uwtable
define internal ptr @zend_compile_prop(ptr noundef %0, ptr noundef %1, i32 noundef %2, i1 noundef zeroext %3) #0 {
  %5 = alloca ptr, align 8
  %6 = alloca ptr, align 8
  %7 = alloca i32, align 4
  %8 = alloca i8, align 1
  %9 = alloca i32, align 4
  %10 = alloca ptr, align 8
  store ptr %0, ptr %5, align 8
  store ptr %1, ptr %6, align 8
  store i32 %2, ptr %7, align 4
  %11 = zext i1 %3 to i8
  store i8 %11, ptr %8, align 1
  %12 = call i32 @zend_delayed_compile_begin()
  store i32 %12, ptr %9, align 4
  %13 = load ptr, ptr %5, align 8
  %14 = load ptr, ptr %6, align 8
  %15 = load i32, ptr %7, align 4
  %16 = call ptr @zend_delayed_compile_prop(ptr noundef %13, ptr noundef %14, i32 noundef %15)
  store ptr %16, ptr %10, align 8
  %17 = load i8, ptr %8, align 1
  %18 = trunc i8 %17 to i1
  br i1 %18, label %19, label %24

19:                                               ; preds = %4
  %20 = load ptr, ptr %10, align 8
  %21 = getelementptr inbounds %struct._zend_op, ptr %20, i32 0, i32 4
  %22 = load i32, ptr %21, align 4
  %23 = or i32 %22, 1
  store i32 %23, ptr %21, align 4
  br label %24

24:                                               ; preds = %19, %4
  %25 = load i32, ptr %9, align 4
  %26 = call ptr @zend_delayed_compile_end(i32 noundef %25)
  ret ptr %26
}

; Function Attrs: nounwind uwtable
define internal void @zend_compile_pre_incdec(ptr noundef %0, ptr noundef %1) #0 {
  %3 = alloca ptr, align 8
  %4 = alloca ptr, align 8
  %5 = alloca ptr, align 8
  %6 = alloca ptr, align 8
  %7 = alloca ptr, align 8
  %8 = alloca %struct._znode, align 8
  %9 = alloca ptr, align 8
  store ptr %0, ptr %3, align 8
  store ptr %1, ptr %4, align 8
  %10 = load ptr, ptr %4, align 8
  %11 = getelementptr inbounds %struct._zend_ast, ptr %10, i32 0, i32 3
  %12 = getelementptr inbounds [1 x ptr], ptr %11, i64 0, i64 0
  %13 = load ptr, ptr %12, align 8
  store ptr %13, ptr %5, align 8
  %14 = load ptr, ptr %4, align 8
  %15 = getelementptr inbounds %struct._zend_ast, ptr %14, i32 0, i32 0
  %16 = load i16, ptr %15, align 8
  %17 = zext i16 %16 to i32
  %18 = icmp eq i32 %17, 271
  br i1 %18, label %25, label %19

19:                                               ; preds = %2
  %20 = load ptr, ptr %4, align 8
  %21 = getelementptr inbounds %struct._zend_ast, ptr %20, i32 0, i32 0
  %22 = load i16, ptr %21, align 8
  %23 = zext i16 %22 to i32
  %24 = icmp eq i32 %23, 272
  br label %25

25:                                               ; preds = %19, %2
  %26 = phi i1 [ true, %2 ], [ %24, %19 ]
  call void @llvm.assume(i1 %26)
  %27 = load ptr, ptr %5, align 8
  call void @zend_ensure_writable_variable(ptr noundef %27)
  %28 = load ptr, ptr %5, align 8
  %29 = getelementptr inbounds %struct._zend_ast, ptr %28, i32 0, i32 0
  %30 = load i16, ptr %29, align 8
  %31 = zext i16 %30 to i32
  %32 = icmp eq i32 %31, 513
  br i1 %32, label %39, label %33

33:                                               ; preds = %25
  %34 = load ptr, ptr %5, align 8
  %35 = getelementptr inbounds %struct._zend_ast, ptr %34, i32 0, i32 0
  %36 = load i16, ptr %35, align 8
  %37 = zext i16 %36 to i32
  %38 = icmp eq i32 %37, 514
  br i1 %38, label %39, label %56

39:                                               ; preds = %33, %25
  %40 = load ptr, ptr %3, align 8
  %41 = load ptr, ptr %5, align 8
  %42 = call ptr @zend_compile_prop(ptr noundef %40, ptr noundef %41, i32 noundef 2, i1 noundef zeroext false)
  store ptr %42, ptr %6, align 8
  %43 = load ptr, ptr %4, align 8
  %44 = getelementptr inbounds %struct._zend_ast, ptr %43, i32 0, i32 0
  %45 = load i16, ptr %44, align 8
  %46 = zext i16 %45 to i32
  %47 = icmp eq i32 %46, 271
  %48 = select i1 %47, i32 132, i32 133
  %49 = trunc i32 %48 to i8
  %50 = load ptr, ptr %6, align 8
  %51 = getelementptr inbounds %struct._zend_op, ptr %50, i32 0, i32 6
  store i8 %49, ptr %51, align 4
  %52 = load ptr, ptr %6, align 8
  %53 = getelementptr inbounds %struct._zend_op, ptr %52, i32 0, i32 9
  store i8 2, ptr %53, align 1
  %54 = load ptr, ptr %3, align 8
  %55 = getelementptr inbounds %struct._znode, ptr %54, i32 0, i32 0
  store i8 2, ptr %55, align 8
  br label %104

56:                                               ; preds = %33
  %57 = load ptr, ptr %5, align 8
  %58 = getelementptr inbounds %struct._zend_ast, ptr %57, i32 0, i32 0
  %59 = load i16, ptr %58, align 8
  %60 = zext i16 %59 to i32
  %61 = icmp eq i32 %60, 515
  br i1 %61, label %62, label %79

62:                                               ; preds = %56
  %63 = load ptr, ptr %3, align 8
  %64 = load ptr, ptr %5, align 8
  %65 = call ptr @zend_compile_static_prop(ptr noundef %63, ptr noundef %64, i32 noundef 2, i1 noundef zeroext false, i1 noundef zeroext false)
  store ptr %65, ptr %7, align 8
  %66 = load ptr, ptr %4, align 8
  %67 = getelementptr inbounds %struct._zend_ast, ptr %66, i32 0, i32 0
  %68 = load i16, ptr %67, align 8
  %69 = zext i16 %68 to i32
  %70 = icmp eq i32 %69, 271
  %71 = select i1 %70, i32 38, i32 39
  %72 = trunc i32 %71 to i8
  %73 = load ptr, ptr %7, align 8
  %74 = getelementptr inbounds %struct._zend_op, ptr %73, i32 0, i32 6
  store i8 %72, ptr %74, align 4
  %75 = load ptr, ptr %7, align 8
  %76 = getelementptr inbounds %struct._zend_op, ptr %75, i32 0, i32 9
  store i8 2, ptr %76, align 1
  %77 = load ptr, ptr %3, align 8
  %78 = getelementptr inbounds %struct._znode, ptr %77, i32 0, i32 0
  store i8 2, ptr %78, align 8
  br label %103

79:                                               ; preds = %56
  %80 = load ptr, ptr %5, align 8
  %81 = call ptr @zend_compile_var(ptr noundef %8, ptr noundef %80, i32 noundef 2, i1 noundef zeroext false)
  store ptr %81, ptr %9, align 8
  %82 = load ptr, ptr %9, align 8
  %83 = icmp ne ptr %82, null
  br i1 %83, label %84, label %93

84:                                               ; preds = %79
  %85 = load ptr, ptr %9, align 8
  %86 = getelementptr inbounds %struct._zend_op, ptr %85, i32 0, i32 6
  %87 = load i8, ptr %86, align 4
  %88 = zext i8 %87 to i32
  %89 = icmp eq i32 %88, 87
  br i1 %89, label %90, label %93

90:                                               ; preds = %84
  %91 = load ptr, ptr %9, align 8
  %92 = getelementptr inbounds %struct._zend_op, ptr %91, i32 0, i32 4
  store i32 4, ptr %92, align 4
  br label %93

93:                                               ; preds = %90, %84, %79
  %94 = load ptr, ptr %3, align 8
  %95 = load ptr, ptr %4, align 8
  %96 = getelementptr inbounds %struct._zend_ast, ptr %95, i32 0, i32 0
  %97 = load i16, ptr %96, align 8
  %98 = zext i16 %97 to i32
  %99 = icmp eq i32 %98, 271
  %100 = select i1 %99, i32 34, i32 35
  %101 = trunc i32 %100 to i8
  %102 = call ptr @zend_emit_op_tmp(ptr noundef %94, i8 noundef zeroext %101, ptr noundef %8, ptr noundef null)
  br label %103

103:                                              ; preds = %93, %62
  br label %104

104:                                              ; preds = %103, %39
  ret void
}