; Function Attrs: nounwind uwtable
define internal fastcc void @zend_compile_pre_incdec(ptr noundef %0, ptr nocapture noundef readonly %1) unnamed_addr #0 {
  %3 = alloca %struct._znode, align 8
  %4 = getelementptr inbounds i8, ptr %1, i64 8
  %5 = load ptr, ptr %4, align 8
  %6 = load i16, ptr %1, align 8
  %7 = add i16 %6, -271
  %spec.select = icmp ult i16 %7, 2
  tail call void @llvm.assume(i1 %spec.select)
  tail call fastcc void @zend_ensure_writable_variable(ptr noundef %5)
  %8 = load i16, ptr %5, align 8
  switch i16 %8, label %25 [
    i16 513, label %9
    i16 514, label %9
    i16 515, label %18
  ]

9:                                                ; preds = %2, %2
  %10 = tail call i32 @zend_stack_count(ptr noundef nonnull getelementptr inbounds (%struct._zend_compiler_globals, ptr @compiler_globals, i64 0, i32 33)) #30
  %11 = tail call fastcc ptr @zend_delayed_compile_prop(ptr noundef %0, ptr noundef nonnull %5, i32 noundef 2)
  %12 = tail call fastcc ptr @zend_delayed_compile_end(i32 noundef %10)
  %13 = load i16, ptr %1, align 8
  %14 = icmp eq i16 %13, 271
  %15 = select i1 %14, i8 -124, i8 -123
  %16 = getelementptr inbounds i8, ptr %12, i64 28
  store i8 %15, ptr %16, align 4
  %17 = getelementptr inbounds i8, ptr %12, i64 31
  store i8 2, ptr %17, align 1
  store i8 2, ptr %0, align 8
  br label %39

18:                                               ; preds = %2
  %19 = tail call fastcc ptr @zend_compile_static_prop(ptr noundef %0, ptr noundef nonnull %5, i32 noundef 2, i1 noundef zeroext false, i1 noundef zeroext false)
  %20 = load i16, ptr %1, align 8
  %21 = icmp eq i16 %20, 271
  %22 = select i1 %21, i8 38, i8 39
  %23 = getelementptr inbounds i8, ptr %19, i64 28
  store i8 %22, ptr %23, align 4
  %24 = getelementptr inbounds i8, ptr %19, i64 31
  store i8 2, ptr %24, align 1
  store i8 2, ptr %0, align 8
  br label %39

25:                                               ; preds = %2
  %26 = tail call i32 @zend_stack_count(ptr noundef nonnull getelementptr inbounds (%struct._zend_compiler_globals, ptr @compiler_globals, i64 0, i32 45)) #30
  %27 = call fastcc ptr @zend_compile_var_inner(ptr noundef nonnull %3, ptr noundef nonnull %5, i32 noundef 2, i1 noundef zeroext false)
  call fastcc void @zend_short_circuiting_commit(i32 noundef %26, ptr noundef nonnull %3, ptr noundef nonnull %5)
  %.not = icmp eq ptr %27, null
  br i1 %.not, label %34, label %28

28:                                               ; preds = %25
  %29 = getelementptr inbounds i8, ptr %27, i64 28
  %30 = load i8, ptr %29, align 4
  %31 = icmp eq i8 %30, 87
  br i1 %31, label %32, label %34

32:                                               ; preds = %28
  %33 = getelementptr inbounds i8, ptr %27, i64 20
  store i32 4, ptr %33, align 4
  br label %34

34:                                               ; preds = %32, %28, %25
  %35 = load i16, ptr %1, align 8
  %36 = icmp eq i16 %35, 271
  %37 = select i1 %36, i8 34, i8 35
  %38 = call fastcc ptr @zend_emit_op_tmp(ptr noundef %0, i8 noundef zeroext %37, ptr noundef nonnull %3, ptr noundef null)
  br label %39

39:                                               ; preds = %18, %34, %9
  ret void
}